target datalayout = "e-m:e-p270:32:32-p271:32:32-p272:64:64-i64:64-i128:128-f80:128-n8:16:32:64-S128"
target triple = "x86_64-pc-linux-gnu"

%"class.LIEF::MachO::RPathCommand" = type { %"class.LIEF::MachO::LoadCommand", %"class.std::__cxx11::basic_string" }
%"class.LIEF::MachO::LoadCommand" = type { %"class.LIEF::Object", %"class.std::vector", i64, i32, i64 }
%"class.LIEF::Object" = type { ptr }
%"class.std::vector" = type { %"struct.std::_Vector_base" }
%"struct.std::_Vector_base" = type { %"struct.std::_Vector_base<unsigned char, std::allocator<unsigned char>>::_Vector_impl" }
%"struct.std::_Vector_base<unsigned char, std::allocator<unsigned char>>::_Vector_impl" = type { %"struct.std::_Vector_base<unsigned char, std::allocator<unsigned char>>::_Vector_impl_data" }
%"struct.std::_Vector_base<unsigned char, std::allocator<unsigned char>>::_Vector_impl_data" = type { ptr, ptr, ptr }
%"class.std::__cxx11::basic_string" = type { %"struct.std::__cxx11::basic_string<char>::_Alloc_hider", i64, %union.anon }
%"struct.std::__cxx11::basic_string<char>::_Alloc_hider" = type { ptr }
%union.anon = type { i64, [8 x i8] }
%"struct.LIEF::MachO::details::rpath_command" = type { i32, i32, i32 }

; Function Attrs: mustprogress uwtable
define void @_ZN4LIEF5MachO12RPathCommandC2ERKNS0_7details13rpath_commandE(ptr noundef nonnull align 8 dereferenceable(88) %0, ptr noundef nonnull align 4 dereferenceable(12) %1) unnamed_addr #0 align 2 {
  %3 = alloca ptr, align 8
  %4 = alloca ptr, align 8
  store ptr %0, ptr %3, align 8
  store ptr %1, ptr %4, align 8
  %5 = load ptr, ptr %3, align 8
  %6 = load ptr, ptr %4, align 8
  %7 = getelementptr inbounds %"struct.LIEF::MachO::details::rpath_command", ptr %6, i32 0, i32 0
  %8 = load i32, ptr %7, align 4
  %9 = zext i32 %8 to i64
  %10 = load ptr, ptr %4, align 8
  %11 = getelementptr inbounds %"struct.LIEF::MachO::details::rpath_command", ptr %10, i32 0, i32 1
  %12 = load i32, ptr %11, align 4
  call void @_ZN4LIEF5MachO11LoadCommandC2ENS0_18LOAD_COMMAND_TYPESEj(ptr noundef nonnull align 8 dereferenceable(56) %5, i64 noundef %9, i32 noundef %12)
  store ptr getelementptr inbounds ({ [9 x ptr] }, ptr @_ZTVN4LIEF5MachO12RPathCommandE, i32 0, i32 0, i32 2), ptr %5, align 8
  %13 = getelementptr inbounds %"class.LIEF::MachO::RPathCommand", ptr %5, i32 0, i32 1
  call void @_ZNSt7__cxx1112basic_stringIcSt11char_traitsIcESaIcEEC1Ev(ptr noundef nonnull align 8 dereferenceable(32) %13) #6
  ret void
}